target datalayout = "e-m:e-p270:32:32-p271:32:32-p272:64:64-i64:64-i128:128-f80:128-n8:16:32:64-S128"
target triple = "x86_64-pc-linux-gnu"

%struct.hvl_t = type { i64, ptr }

@H5_libterm_g = external global i8, align 1
@H5T_init_g = external global i8, align 1

; Function Attrs: nounwind uwtable
define internal i32 @H5T__vlen_mem_seq_read(ptr noundef %0, ptr noundef %1, ptr noundef %2, i64 noundef %3) #0 {
  %5 = alloca ptr, align 8
  %6 = alloca ptr, align 8
  %7 = alloca ptr, align 8
  %8 = alloca i64, align 8
  %9 = alloca %struct.hvl_t, align 8
  store ptr %0, ptr %5, align 8, !tbaa !30
  store ptr %1, ptr %6, align 8, !tbaa !38
  store ptr %2, ptr %7, align 8, !tbaa !38
  store i64 %3, ptr %8, align 8, !tbaa !3
  call void @llvm.lifetime.start.p0(i64 16, ptr %9) #9
  %10 = load i8, ptr @H5T_init_g, align 1, !tbaa !10, !range !12, !noundef !13
  %11 = trunc i8 %10 to i1
  br i1 %11, label %16, label %12

12:                                               ; preds = %4
  %13 = load i8, ptr @H5_libterm_g, align 1, !tbaa !10, !range !12, !noundef !13
  %14 = trunc i8 %13 to i1
  %15 = xor i1 %14, true
  br label %16

16:                                               ; preds = %12, %4
  %17 = phi i1 [ true, %4 ], [ %15, %12 ]
  %18 = xor i1 %17, true
  %19 = xor i1 %18, true
  %20 = zext i1 %19 to i32
  %21 = sext i32 %20 to i64
  %22 = call i64 @llvm.expect.i64(i64 %21, i64 1)
  %23 = icmp ne i64 %22, 0
  br i1 %23, label %24, label %30

24:                                               ; preds = %16
  %25 = load ptr, ptr %6, align 8, !tbaa !38
  call void @llvm.memcpy.p0.p0.i64(ptr align 8 %9, ptr align 1 %25, i64 16, i1 false)
  %26 = load ptr, ptr %7, align 8, !tbaa !38
  %27 = getelementptr inbounds nuw %struct.hvl_t, ptr %9, i32 0, i32 1
  %28 = load ptr, ptr %27, align 8, !tbaa !51
  %29 = load i64, ptr %8, align 8, !tbaa !3
  call void @llvm.memcpy.p0.p0.i64(ptr align 1 %26, ptr align 1 %28, i64 %29, i1 false)
  br label %30

30:                                               ; preds = %24, %16
  call void @llvm.lifetime.end.p0(i64 16, ptr %9) #9
  ret i32 0
}