; Function Attrs: mustprogress nofree norecurse nosync nounwind willreturn memory(readwrite, inaccessiblemem: none) uwtable
define internal noundef i32 @H5T__vlen_mem_seq_read(ptr readnone captures(none) %0, ptr noundef readonly captures(none) %1, ptr noundef writeonly captures(none) %2, i64 noundef %3) #9 {
  %5 = load i8, ptr @H5T_init_g, align 1, !tbaa !3, !range !7, !noundef !8
  %6 = trunc nuw i8 %5 to i1
  %7 = load i8, ptr @H5_libterm_g, align 1, !range !7
  %8 = trunc nuw i8 %7 to i1
  %9 = xor i1 %8, true
  %10 = select i1 %6, i1 true, i1 %9
  br i1 %10, label %11, label %12, !prof !9

11:                                               ; preds = %4
  %.sroa.3.0..sroa_idx = getelementptr inbounds nuw i8, ptr %1, i64 8
  %.sroa.3.0.copyload = load ptr, ptr %.sroa.3.0..sroa_idx, align 1
  tail call void @llvm.memcpy.p0.p0.i64(ptr align 1 %2, ptr align 1 %.sroa.3.0.copyload, i64 %3, i1 false)
  br label %12

12:                                               ; preds = %11, %4
  ret i32 0
}